target datalayout = "e-m:e-p270:32:32-p271:32:32-p272:64:64-i64:64-i128:128-f80:128-n8:16:32:64-S128"
target triple = "x86_64-pc-linux-gnu"

%struct.rb_data_type_struct = type { ptr, %struct.anon, ptr, ptr, i64 }
%struct.anon = type { ptr, ptr, ptr, ptr, [1 x ptr] }

@d_lite_type = internal constant %struct.rb_data_type_struct { ptr @.str.14, %struct.anon { ptr @d_lite_gc_mark, ptr inttoptr (i64 -1 to ptr), ptr @d_lite_memsize, ptr null, [1 x ptr] zeroinitializer }, ptr null, ptr null, i64 289 }, align 8

; Function Attrs: inlinehint nounwind sspstrong uwtable
define internal i32 @c_jd_to_wday(i32 noundef %0) #3 {
  %2 = alloca i32, align 4
  store i32 %0, ptr %2, align 4, !tbaa !19
  %3 = load i32, ptr %2, align 4, !tbaa !19
  %4 = add nsw i32 %3, 1
  %5 = icmp slt i32 %4, 0
  br i1 %5, label %6, label %14

6:                                                ; preds = %1
  %7 = load i32, ptr %2, align 4, !tbaa !19
  %8 = add nsw i32 %7, 1
  %9 = add nsw i32 %8, 1
  %10 = sub nsw i32 0, %9
  %11 = srem i32 %10, 7
  %12 = sub nsw i32 7, %11
  %13 = sub nsw i32 %12, 1
  br label %18

14:                                               ; preds = %1
  %15 = load i32, ptr %2, align 4, !tbaa !19
  %16 = add nsw i32 %15, 1
  %17 = srem i32 %16, 7
  br label %18

18:                                               ; preds = %14, %6
  %19 = phi i32 [ %13, %6 ], [ %17, %14 ]
  ret i32 %19
}

; Function Attrs: nounwind sspstrong uwtable
define internal i32 @m_wday(ptr noundef %0) #0 {
  %2 = alloca ptr, align 8
  store ptr %0, ptr %2, align 8, !tbaa !27
  %3 = load ptr, ptr %2, align 8, !tbaa !27
  %4 = call i32 @m_local_jd(ptr noundef %3)
  %5 = call i32 @c_jd_to_wday(i32 noundef %4)
  ret i32 %5
}

; Function Attrs: nounwind sspstrong uwtable
define internal i64 @d_lite_thursday_p(i64 noundef %0) #0 {
  %2 = alloca i64, align 8
  %3 = alloca ptr, align 8
  store i64 %0, ptr %2, align 8, !tbaa !6
  call void @llvm.lifetime.start.p0(i64 8, ptr %3) #23
  %4 = load i64, ptr %2, align 8, !tbaa !6
  %5 = call ptr @rb_check_typeddata(i64 noundef %4, ptr noundef @d_lite_type)
  store ptr %5, ptr %3, align 8, !tbaa !27
  %6 = load ptr, ptr %3, align 8, !tbaa !27
  %7 = call i32 @m_wday(ptr noundef %6)
  %8 = icmp eq i32 %7, 4
  %9 = select i1 %8, i64 20, i64 0
  call void @llvm.lifetime.end.p0(i64 8, ptr %3) #23
  ret i64 %9
}